	.cpu cortex-a9
	.eabi_attribute 28, 1
	.eabi_attribute 20, 1
	.eabi_attribute 21, 1
	.eabi_attribute 23, 3
	.eabi_attribute 24, 1
	.eabi_attribute 25, 1
	.eabi_attribute 26, 1
	.eabi_attribute 30, 6
	.eabi_attribute 34, 1
	.eabi_attribute 18, 4
	.file	"main.c"
	.text
.Ltext0:
	.cfi_sections	.debug_frame
	.align	2
	.syntax unified
	.arm
	.fpu vfpv3
	.type	Xil_In32, %function
Xil_In32:
.LFB3:
	.file 1 "../../ps_app_bsp/ps7_cortexa9_0/include/xil_io.h"
	.loc 1 148 0
	.cfi_startproc
	@ args = 0, pretend = 0, frame = 8
	@ frame_needed = 1, uses_anonymous_args = 0
	@ link register save eliminated.
	str	fp, [sp, #-4]!
	.cfi_def_cfa_offset 4
	.cfi_offset 11, -4
	add	fp, sp, #0
	.cfi_def_cfa_register 11
	sub	sp, sp, #12
	str	r0, [fp, #-8]
	.loc 1 149 0
	ldr	r3, [fp, #-8]
	ldr	r3, [r3]
	.loc 1 150 0
	mov	r0, r3
	add	sp, fp, #0
	.cfi_def_cfa_register 13
	@ sp needed
	ldr	fp, [sp], #4
	.cfi_restore 11
	.cfi_def_cfa_offset 0
	bx	lr
	.cfi_endproc
.LFE3:
	.size	Xil_In32, .-Xil_In32
	.align	2
	.syntax unified
	.arm
	.fpu vfpv3
	.type	Xil_Out32, %function
Xil_Out32:
.LFB7:
	.loc 1 220 0
	.cfi_startproc
	@ args = 0, pretend = 0, frame = 16
	@ frame_needed = 1, uses_anonymous_args = 0
	@ link register save eliminated.
	str	fp, [sp, #-4]!
	.cfi_def_cfa_offset 4
	.cfi_offset 11, -4
	add	fp, sp, #0
	.cfi_def_cfa_register 11
	sub	sp, sp, #20
	str	r0, [fp, #-16]
	str	r1, [fp, #-20]
	.loc 1 222 0
	ldr	r3, [fp, #-16]
	str	r3, [fp, #-8]
	.loc 1 223 0
	ldr	r3, [fp, #-8]
	ldr	r2, [fp, #-20]
	str	r2, [r3]
	.loc 1 227 0
	nop
	add	sp, fp, #0
	.cfi_def_cfa_register 13
	@ sp needed
	ldr	fp, [sp], #4
	.cfi_restore 11
	.cfi_def_cfa_offset 0
	bx	lr
	.cfi_endproc
.LFE7:
	.size	Xil_Out32, .-Xil_Out32
	.comm	mem_addr,4,4
	.comm	base,4,4
	.bss
	.align	2
Intc:
	.space	12
	.size	Intc, 12
	.global	rx_buffer
	.section	ddr3,"aw",%progbits
	.align	20
	.type	rx_buffer, %object
	.size	rx_buffer, 1048576
rx_buffer:
	.space	1048576
	.global	tx_buffer
	.align	20
	.type	tx_buffer, %object
	.size	tx_buffer, 1048576
tx_buffer:
	.space	1048576
	.comm	dma0_pointer,1872,4
	.comm	dma0_config,4,4
	.comm	gpio,32,4
	.comm	gpio_config,4,4
	.comm	xscu_timer,16,4
	.comm	xscu_timer_cfg,4,4
	.global	ioc_flag
	.bss
	.align	2
	.type	ioc_flag, %object
	.size	ioc_flag, 4
ioc_flag:
	.space	4
	.text
	.align	2
	.global	debug_printf
	.syntax unified
	.arm
	.fpu vfpv3
	.type	debug_printf, %function
debug_printf:
.LFB13:
	.file 2 "../src/main.c"
	.loc 2 90 0
	.cfi_startproc
	@ args = 4, pretend = 16, frame = 1032
	@ frame_needed = 1, uses_anonymous_args = 1
	push	{r0, r1, r2, r3}
	.cfi_def_cfa_offset 16
	.cfi_offset 0, -16
	.cfi_offset 1, -12
	.cfi_offset 2, -8
	.cfi_offset 3, -4
	push	{fp, lr}
	.cfi_def_cfa_offset 24
	.cfi_offset 11, -24
	.cfi_offset 14, -20
	add	fp, sp, #4
	.cfi_def_cfa 11, 20
	sub	sp, sp, #1024
	sub	sp, sp, #8
	.loc 2 94 0
	add	r3, fp, #8
	str	r3, [fp, #-1032]
	.loc 2 96 0
	sub	r0, fp, #1024
	sub	r0, r0, #4
	ldr	r3, [fp, #-1032]
	ldr	r2, [fp, #4]
	mov	r1, #1024
	bl	vsnprintf
	.loc 2 97 0
	sub	r3, fp, #1024
	sub	r3, r3, #4
	mov	r0, r3
	bl	print
	.loc 2 100 0
	nop
	sub	sp, fp, #4
	.cfi_def_cfa 13, 24
	@ sp needed
	pop	{fp, lr}
	.cfi_restore 14
	.cfi_restore 11
	.cfi_def_cfa_offset 16
	add	sp, sp, #16
	.cfi_restore 3
	.cfi_restore 2
	.cfi_restore 1
	.cfi_restore 0
	.cfi_def_cfa_offset 0
	bx	lr
	.cfi_endproc
.LFE13:
	.size	debug_printf, .-debug_printf
	.align	2
	.global	arb_delay
	.syntax unified
	.arm
	.fpu vfpv3
	.type	arb_delay, %function
arb_delay:
.LFB14:
	.loc 2 103 0
	.cfi_startproc
	@ args = 0, pretend = 0, frame = 8
	@ frame_needed = 1, uses_anonymous_args = 0
	@ link register save eliminated.
	str	fp, [sp, #-4]!
	.cfi_def_cfa_offset 4
	.cfi_offset 11, -4
	add	fp, sp, #0
	.cfi_def_cfa_register 11
	sub	sp, sp, #12
	str	r0, [fp, #-8]
	.loc 2 104 0
	b	.L6
.L7:
	.loc 2 105 0
	.syntax divided
@ 105 "../src/main.c" 1
	nop
@ 0 "" 2
	.arm
	.syntax unified
.L6:
	.loc 2 104 0
	ldr	r3, [fp, #-8]
	sub	r2, r3, #1
	str	r2, [fp, #-8]
	cmp	r3, #0
	bne	.L7
	.loc 2 107 0
	nop
	add	sp, fp, #0
	.cfi_def_cfa_register 13
	@ sp needed
	ldr	fp, [sp], #4
	.cfi_restore 11
	.cfi_def_cfa_offset 0
	bx	lr
	.cfi_endproc
.LFE14:
	.size	arb_delay, .-arb_delay
	.section	.rodata
	.align	2
.LC0:
	.ascii	"irq=0x%08x\015\012\000"
	.align	2
.LC1:
	.ascii	"NoIRQ?\015\012\000"
	.align	2
.LC2:
	.ascii	"IOC!\015\012\000"
	.text
	.align	2
	.syntax unified
	.arm
	.fpu vfpv3
	.type	RxIntrHandler, %function
RxIntrHandler:
.LFB15:
	.loc 2 116 0
	.cfi_startproc
	@ args = 0, pretend = 0, frame = 16
	@ frame_needed = 1, uses_anonymous_args = 0
	push	{fp, lr}
	.cfi_def_cfa_offset 8
	.cfi_offset 11, -8
	.cfi_offset 14, -4
	add	fp, sp, #4
	.cfi_def_cfa 11, 4
	sub	sp, sp, #16
	str	r0, [fp, #-16]
	.loc 2 117 0
	ldr	r3, [fp, #-16]
	str	r3, [fp, #-8]
	.loc 2 123 0
	ldr	r3, [fp, #-8]
	ldr	r3, [r3]
	add	r3, r3, #4
	mov	r0, r3
	bl	Xil_In32
	mov	r3, r0
	and	r3, r3, #28672
	str	r3, [fp, #-12]
	.loc 2 126 0
	movw	r3, #:lower16:dma0_pointer
	movt	r3, #:upper16:dma0_pointer
	ldr	r3, [r3]
	add	r3, r3, #4
	mov	r1, #28672
	mov	r0, r3
	bl	Xil_Out32
	.loc 2 129 0
	ldr	r3, [fp, #-8]
	ldr	r3, [r3]
	add	r2, r3, #4
	ldr	r3, [fp, #-12]
	and	r3, r3, #28672
	mov	r1, r3
	mov	r0, r2
	bl	Xil_Out32
	.loc 2 131 0
	ldr	r1, [fp, #-12]
	movw	r0, #:lower16:.LC0
	movt	r0, #:upper16:.LC0
	bl	debug_printf
	.loc 2 136 0
	ldr	r3, [fp, #-12]
	and	r3, r3, #28672
	cmp	r3, #0
	bne	.L9
	.loc 2 137 0
	movw	r0, #:lower16:.LC1
	movt	r0, #:upper16:.LC1
	bl	debug_printf
	.loc 2 138 0
	b	.L8
.L9:
	.loc 2 184 0
	ldr	r3, [fp, #-12]
	and	r3, r3, #12288
	cmp	r3, #0
	beq	.L8
	.loc 2 185 0
	movw	r0, #:lower16:.LC2
	movt	r0, #:upper16:.LC2
	bl	debug_printf
	.loc 2 186 0
	movw	r3, #:lower16:ioc_flag
	movt	r3, #:upper16:ioc_flag
	mov	r2, #1
	str	r2, [r3]
.L8:
	.loc 2 188 0
	sub	sp, fp, #4
	.cfi_def_cfa 13, 8
	@ sp needed
	pop	{fp, pc}
	.cfi_endproc
.LFE15:
	.size	RxIntrHandler, .-RxIntrHandler
	.align	2
	.syntax unified
	.arm
	.fpu vfpv3
	.type	SetupIntrSystem, %function
SetupIntrSystem:
.LFB16:
	.loc 2 192 0
	.cfi_startproc
	@ args = 0, pretend = 0, frame = 40
	@ frame_needed = 1, uses_anonymous_args = 0
	push	{fp, lr}
	.cfi_def_cfa_offset 8
	.cfi_offset 11, -8
	.cfi_offset 14, -4
	add	fp, sp, #4
	.cfi_def_cfa 11, 4
	sub	sp, sp, #40
	str	r0, [fp, #-32]
	str	r1, [fp, #-36]
	mov	r1, r2
	mov	r2, r3
	mov	r3, r1	@ movhi
	strh	r3, [fp, #-38]	@ movhi
	mov	r3, r2	@ movhi
	strh	r3, [fp, #-40]	@ movhi
	.loc 2 193 0
	ldr	r3, [fp, #-36]
	add	r3, r3, #20
	str	r3, [fp, #-8]
	.loc 2 194 0
	ldr	r3, [fp, #-36]
	add	r3, r3, #128
	str	r3, [fp, #-12]
	.loc 2 203 0
	mov	r0, #0
	bl	XScuGic_LookupConfig
	str	r0, [fp, #-16]
	.loc 2 204 0
	ldr	r3, [fp, #-16]
	cmp	r3, #0
	bne	.L12
	.loc 2 205 0
	mov	r3, #1
	b	.L13
.L12:
	.loc 2 208 0
	ldr	r3, [fp, #-16]
	ldr	r3, [r3, #4]
	mov	r2, r3
	ldr	r1, [fp, #-16]
	ldr	r0, [fp, #-32]
	bl	XScuGic_CfgInitialize
	str	r0, [fp, #-20]
	.loc 2 210 0
	ldr	r3, [fp, #-20]
	cmp	r3, #0
	beq	.L14
	.loc 2 211 0
	mov	r3, #1
	b	.L13
.L14:
	.loc 2 217 0
	ldrh	r1, [fp, #-40]
	mov	r3, #3
	mov	r2, #160
	ldr	r0, [fp, #-32]
	bl	XScuGic_SetPriorityTriggerType
	.loc 2 233 0
	ldrh	r1, [fp, #-40]
	ldr	r3, [fp, #-12]
	movw	r2, #:lower16:RxIntrHandler
	movt	r2, #:upper16:RxIntrHandler
	ldr	r0, [fp, #-32]
	bl	XScuGic_Connect
	str	r0, [fp, #-20]
	.loc 2 236 0
	ldr	r3, [fp, #-20]
	cmp	r3, #0
	beq	.L15
	.loc 2 237 0
	ldr	r3, [fp, #-20]
	b	.L13
.L15:
	.loc 2 241 0
	ldrh	r3, [fp, #-40]
	mov	r1, r3
	ldr	r0, [fp, #-32]
	bl	XScuGic_Enable
	.loc 2 245 0
	bl	Xil_ExceptionInit
	.loc 2 246 0
	ldr	r2, [fp, #-32]
	movw	r1, #:lower16:XScuGic_InterruptHandler
	movt	r1, #:upper16:XScuGic_InterruptHandler
	mov	r0, #5
	bl	Xil_ExceptionRegisterHandler
.LBB2:
	.loc 2 250 0
	mov	r3, #0
	str	r3, [fp, #-24]
	.syntax divided
@ 250 "../src/main.c" 1
	mrs	r3, cpsr

@ 0 "" 2
	.arm
	.syntax unified
	str	r3, [fp, #-24]
	ldr	r3, [fp, #-24]
.LBE2:
	bic	r3, r3, #128
	.syntax divided
@ 250 "../src/main.c" 1
	msr	cpsr,r3

@ 0 "" 2
	.loc 2 252 0
	.arm
	.syntax unified
	mov	r3, #0
.L13:
	.loc 2 253 0
	mov	r0, r3
	sub	sp, fp, #4
	.cfi_def_cfa 13, 8
	@ sp needed
	pop	{fp, pc}
	.cfi_endproc
.LFE16:
	.size	SetupIntrSystem, .-SetupIntrSystem
	.section	.rodata
	.align	2
.LC3:
	.ascii	"\033[2J\033[0m\000"
	.align	2
.LC4:
	.ascii	"\015\012\015\012DemoApp v1.0 - DMA controlled trans"
	.ascii	"fers\015\012\000"
	.align	2
.LC5:
	.ascii	"ERROR: Initialising timer failed\015\012\000"
	.align	2
.LC6:
	.ascii	"Timer ready\015\012\000"
	.align	2
.LC7:
	.ascii	"ERROR: Initialising GPIO failed\015\012\000"
	.align	2
.LC8:
	.ascii	"GPIO block configured\015\012\000"
	.text
	.align	2
	.global	main
	.syntax unified
	.arm
	.fpu vfpv3
	.type	main, %function
main:
.LFB17:
	.loc 2 256 0
	.cfi_startproc
	@ args = 0, pretend = 0, frame = 24
	@ frame_needed = 1, uses_anonymous_args = 0
	push	{fp, lr}
	.cfi_def_cfa_offset 8
	.cfi_offset 11, -8
	.cfi_offset 14, -4
	add	fp, sp, #4
	.cfi_def_cfa 11, 4
	sub	sp, sp, #24
	.loc 2 257 0
	mov	r3, #0
	str	r3, [fp, #-16]
	mov	r3, #0
	str	r3, [fp, #-8]
	.loc 2 261 0
	bl	init_platform
	.loc 2 263 0
	movw	r0, #:lower16:.LC3
	movt	r0, #:upper16:.LC3
	bl	debug_printf
	.loc 2 264 0
	movw	r0, #:lower16:.LC4
	movt	r0, #:upper16:.LC4
	bl	debug_printf
	.loc 2 267 0
	mov	r0, #0
	bl	XScuTimer_LookupConfig
	mov	r2, r0
	movw	r3, #:lower16:xscu_timer_cfg
	movt	r3, #:upper16:xscu_timer_cfg
	str	r2, [r3]
	.loc 2 268 0
	movw	r3, #:lower16:xscu_timer_cfg
	movt	r3, #:upper16:xscu_timer_cfg
	ldr	r1, [r3]
	movw	r3, #:lower16:xscu_timer_cfg
	movt	r3, #:upper16:xscu_timer_cfg
	ldr	r3, [r3]
	ldr	r3, [r3, #4]
	mov	r2, r3
	movw	r0, #:lower16:xscu_timer
	movt	r0, #:upper16:xscu_timer
	bl	XScuTimer_CfgInitialize
	str	r0, [fp, #-20]
	.loc 2 270 0
	ldr	r3, [fp, #-20]
	cmp	r3, #0
	beq	.L17
	.loc 2 271 0
	movw	r0, #:lower16:.LC5
	movt	r0, #:upper16:.LC5
	bl	xil_printf
.L18:
	.loc 2 272 0 discriminator 1
	b	.L18
.L17:
	.loc 2 275 0
	movw	r0, #:lower16:.LC6
	movt	r0, #:upper16:.LC6
	bl	debug_printf
	.loc 2 278 0
	mov	r0, #0
	bl	XGpioPs_LookupConfig
	mov	r2, r0
	movw	r3, #:lower16:gpio_config
	movt	r3, #:upper16:gpio_config
	str	r2, [r3]
	.loc 2 279 0
	movw	r3, #:lower16:gpio_config
	movt	r3, #:upper16:gpio_config
	ldr	r1, [r3]
	movw	r3, #:lower16:gpio_config
	movt	r3, #:upper16:gpio_config
	ldr	r3, [r3]
	ldr	r3, [r3, #4]
	mov	r2, r3
	movw	r0, #:lower16:gpio
	movt	r0, #:upper16:gpio
	bl	XGpioPs_CfgInitialize
	str	r0, [fp, #-20]
	.loc 2 281 0
	ldr	r3, [fp, #-20]
	cmp	r3, #0
	beq	.L19
	.loc 2 282 0
	movw	r0, #:lower16:.LC7
	movt	r0, #:upper16:.LC7
	bl	xil_printf
.L20:
	.loc 2 283 0 discriminator 2
	b	.L20
.L19:
	.loc 2 286 0
	mov	r2, #1
	mov	r1, #9
	movw	r0, #:lower16:gpio
	movt	r0, #:upper16:gpio
	bl	XGpioPs_SetDirectionPin
	.loc 2 287 0
	mov	r2, #1
	mov	r1, #9
	movw	r0, #:lower16:gpio
	movt	r0, #:upper16:gpio
	bl	XGpioPs_SetOutputEnablePin
	.loc 2 289 0
	mov	r2, #1
	mov	r1, #37
	movw	r0, #:lower16:gpio
	movt	r0, #:upper16:gpio
	bl	XGpioPs_SetDirectionPin
	.loc 2 290 0
	mov	r2, #1
	mov	r1, #37
	movw	r0, #:lower16:gpio
	movt	r0, #:upper16:gpio
	bl	XGpioPs_SetOutputEnablePin
	.loc 2 292 0
	movw	r0, #:lower16:.LC8
	movt	r0, #:upper16:.LC8
	bl	debug_printf
	.loc 2 295 0
	movw	r3, #:lower16:xscu_timer
	movt	r3, #:upper16:xscu_timer
	ldr	r3, [r3, #4]
	mvn	r1, #0
	mov	r0, r3
	bl	Xil_Out32
	.loc 2 296 0
	movw	r0, #:lower16:xscu_timer
	movt	r0, #:upper16:xscu_timer
	bl	XScuTimer_Start
	.loc 2 298 0
	movw	r3, #:lower16:xscu_timer
	movt	r3, #:upper16:xscu_timer
	ldr	r3, [r3, #4]
	add	r3, r3, #4
	mov	r0, r3
	bl	Xil_In32
	str	r0, [fp, #-12]
.L22:
	.loc 2 302 0
	movw	r3, #:lower16:xscu_timer
	movt	r3, #:upper16:xscu_timer
	ldr	r3, [r3, #4]
	add	r3, r3, #4
	mov	r0, r3
	bl	Xil_In32
	str	r0, [fp, #-24]
	.loc 2 306 0
	ldr	r2, [fp, #-12]
	ldr	r3, [fp, #-24]
	sub	r3, r2, r3
	cmp	r3, #65536
	bcc	.L22
	.loc 2 307 0
	ldr	r3, [fp, #-24]
	str	r3, [fp, #-12]
	.loc 2 308 0
	ldr	r3, [fp, #-8]
	mvn	r3, r3
	str	r3, [fp, #-8]
	.loc 2 309 0
	ldr	r2, [fp, #-8]
	mov	r1, #9
	movw	r0, #:lower16:gpio
	movt	r0, #:upper16:gpio
	bl	XGpioPs_WritePin
	.loc 2 302 0
	b	.L22
	.cfi_endproc
.LFE17:
	.size	main, .-main
.Letext0:
	.file 3 "g:\\xilinx\\sdk\\2018.3\\gnu\\aarch32\\nt\\gcc-arm-none-eabi\\arm-none-eabi\\libc\\usr\\include\\machine\\_default_types.h"
	.file 4 "g:\\xilinx\\sdk\\2018.3\\gnu\\aarch32\\nt\\gcc-arm-none-eabi\\lib\\gcc\\arm-none-eabi\\7.3.1\\include\\stdarg.h"
	.file 5 "g:\\xilinx\\sdk\\2018.3\\gnu\\aarch32\\nt\\gcc-arm-none-eabi\\arm-none-eabi\\libc\\usr\\include\\sys\\lock.h"
	.file 6 "g:\\xilinx\\sdk\\2018.3\\gnu\\aarch32\\nt\\gcc-arm-none-eabi\\arm-none-eabi\\libc\\usr\\include\\sys\\_types.h"
	.file 7 "g:\\xilinx\\sdk\\2018.3\\gnu\\aarch32\\nt\\gcc-arm-none-eabi\\lib\\gcc\\arm-none-eabi\\7.3.1\\include\\stddef.h"
	.file 8 "g:\\xilinx\\sdk\\2018.3\\gnu\\aarch32\\nt\\gcc-arm-none-eabi\\arm-none-eabi\\libc\\usr\\include\\sys\\reent.h"
	.file 9 "<built-in>"
	.file 10 "g:\\xilinx\\sdk\\2018.3\\gnu\\aarch32\\nt\\gcc-arm-none-eabi\\arm-none-eabi\\libc\\usr\\include\\sys\\_stdint.h"
	.file 11 "g:\\xilinx\\sdk\\2018.3\\gnu\\aarch32\\nt\\gcc-arm-none-eabi\\arm-none-eabi\\libc\\usr\\include\\ctype.h"
	.file 12 "../../ps_app_bsp/ps7_cortexa9_0/include/xil_types.h"
	.file 13 "../../ps_app_bsp/ps7_cortexa9_0/include/xil_assert.h"
	.file 14 "../../ps_app_bsp/ps7_cortexa9_0/include/xgpiops.h"
	.file 15 "../../ps_app_bsp/ps7_cortexa9_0/include/xaxidma_bd.h"
	.file 16 "g:\\xilinx\\sdk\\2018.3\\gnu\\aarch32\\nt\\gcc-arm-none-eabi\\arm-none-eabi\\libc\\usr\\include\\stdlib.h"
	.file 17 "../../ps_app_bsp/ps7_cortexa9_0/include/xaxidma_bdring.h"
	.file 18 "../../ps_app_bsp/ps7_cortexa9_0/include/xaxidma.h"
	.file 19 "../../ps_app_bsp/ps7_cortexa9_0/include/xil_exception.h"
	.file 20 "../../ps_app_bsp/ps7_cortexa9_0/include/xscugic.h"
	.file 21 "../../ps_app_bsp/ps7_cortexa9_0/include/xscutimer.h"